; ModuleID = '37/908.c'
source_filename = "37/908.c"
target datalayout = "e-m:e-p270:32:32-p271:32:32-p272:64:64-i64:64-f80:128-n8:16:32:64-S128"
target triple = "x86_64-pc-linux-gnu"

@.str = private unnamed_addr constant [3 x i8] c"%d\00", align 1
@.str.1 = private unnamed_addr constant [3 x i8] c"%s\00", align 1
@.str.2 = private unnamed_addr constant [4 x i8] c"%c\0A\00", align 1
@.str.3 = private unnamed_addr constant [4 x i8] c"no\0A\00", align 1

; Function Attrs: noinline nounwind uwtable
define dso_local i32 @main() #0 {
  %1 = alloca i32, align 4
  %2 = alloca i32, align 4
  %3 = alloca i32, align 4
  %4 = alloca i32, align 4
  %5 = alloca i32, align 4
  %6 = alloca i32, align 4
  %7 = alloca i32, align 4
  %8 = alloca [100000 x i8], align 16
  %9 = alloca i8*, align 8
  %10 = alloca [100000 x i32], align 16
  store i32 0, i32* %1, align 4
  store i32 0, i32* %7, align 4
  %11 = getelementptr inbounds [100000 x i8], [100000 x i8]* %8, i64 0, i64 0
  store i8* %11, i8** %9, align 8
  %12 = bitcast [100000 x i32]* %10 to i8*
  call void @llvm.memset.p0i8.i64(i8* align 16 %12, i8 0, i64 400000, i1 false)
  %13 = call i32 (i8*, ...) @__isoc99_scanf(i8* getelementptr inbounds ([3 x i8], [3 x i8]* @.str, i64 0, i64 0), i32* %2)
  store i32 0, i32* %3, align 4
  br label %14

14:                                               ; preds = %121, %0
  %15 = load i32, i32* %3, align 4
  %16 = load i32, i32* %2, align 4
  %17 = icmp slt i32 %15, %16
  br i1 %17, label %18, label %124

18:                                               ; preds = %14
  %19 = getelementptr inbounds [100000 x i8], [100000 x i8]* %8, i64 0, i64 0
  %20 = call i32 (i8*, ...) @__isoc99_scanf(i8* getelementptr inbounds ([3 x i8], [3 x i8]* @.str.1, i64 0, i64 0), i8* %19)
  %21 = getelementptr inbounds [100000 x i8], [100000 x i8]* %8, i64 0, i64 0
  %22 = call i64 @strlen(i8* %21) #4
  %23 = trunc i64 %22 to i32
  store i32 %23, i32* %6, align 4
  store i32 0, i32* %4, align 4
  br label %24

24:                                               ; preds = %58, %18
  %25 = load i32, i32* %4, align 4
  %26 = load i32, i32* %6, align 4
  %27 = icmp slt i32 %25, %26
  br i1 %27, label %28, label %61

28:                                               ; preds = %24
  store i32 0, i32* %5, align 4
  br label %29

29:                                               ; preds = %54, %28
  %30 = load i32, i32* %5, align 4
  %31 = load i32, i32* %6, align 4
  %32 = icmp slt i32 %30, %31
  br i1 %32, label %33, label %57

33:                                               ; preds = %29
  %34 = load i8*, i8** %9, align 8
  %35 = load i32, i32* %5, align 4
  %36 = sext i32 %35 to i64
  %37 = getelementptr inbounds i8, i8* %34, i64 %36
  %38 = load i8, i8* %37, align 1
  %39 = sext i8 %38 to i32
  %40 = load i8*, i8** %9, align 8
  %41 = load i32, i32* %4, align 4
  %42 = sext i32 %41 to i64
  %43 = getelementptr inbounds i8, i8* %40, i64 %42
  %44 = load i8, i8* %43, align 1
  %45 = sext i8 %44 to i32
  %46 = icmp eq i32 %39, %45
  br i1 %46, label %47, label %53

47:                                               ; preds = %33
  %48 = load i32, i32* %4, align 4
  %49 = sext i32 %48 to i64
  %50 = getelementptr inbounds [100000 x i32], [100000 x i32]* %10, i64 0, i64 %49
  %51 = load i32, i32* %50, align 4
  %52 = add nsw i32 %51, 1
  store i32 %52, i32* %50, align 4
  br label %53

53:                                               ; preds = %47, %33
  br label %54

54:                                               ; preds = %53
  %55 = load i32, i32* %5, align 4
  %56 = add nsw i32 %55, 1
  store i32 %56, i32* %5, align 4
  br label %29

57:                                               ; preds = %29
  br label %58

58:                                               ; preds = %57
  %59 = load i32, i32* %4, align 4
  %60 = add nsw i32 %59, 1
  store i32 %60, i32* %4, align 4
  br label %24

61:                                               ; preds = %24
  store i32 0, i32* %4, align 4
  br label %62

62:                                               ; preds = %81, %61
  %63 = load i32, i32* %4, align 4
  %64 = load i32, i32* %6, align 4
  %65 = icmp slt i32 %63, %64
  br i1 %65, label %66, label %84

66:                                               ; preds = %62
  %67 = load i32, i32* %4, align 4
  %68 = sext i32 %67 to i64
  %69 = getelementptr inbounds [100000 x i32], [100000 x i32]* %10, i64 0, i64 %68
  %70 = load i32, i32* %69, align 4
  %71 = icmp eq i32 %70, 1
  br i1 %71, label %72, label %80

72:                                               ; preds = %66
  %73 = load i8*, i8** %9, align 8
  %74 = load i32, i32* %4, align 4
  %75 = sext i32 %74 to i64
  %76 = getelementptr inbounds i8, i8* %73, i64 %75
  %77 = load i8, i8* %76, align 1
  %78 = sext i8 %77 to i32
  %79 = call i32 (i8*, ...) @printf(i8* getelementptr inbounds ([4 x i8], [4 x i8]* @.str.2, i64 0, i64 0), i32 %78)
  br label %84

80:                                               ; preds = %66
  br label %81

81:                                               ; preds = %80
  %82 = load i32, i32* %4, align 4
  %83 = add nsw i32 %82, 1
  store i32 %83, i32* %4, align 4
  br label %62

84:                                               ; preds = %72, %62
  store i32 0, i32* %7, align 4
  store i32 0, i32* %4, align 4
  br label %85

85:                                               ; preds = %99, %84
  %86 = load i32, i32* %4, align 4
  %87 = load i32, i32* %6, align 4
  %88 = icmp slt i32 %86, %87
  br i1 %88, label %89, label %102

89:                                               ; preds = %85
  %90 = load i32, i32* %4, align 4
  %91 = sext i32 %90 to i64
  %92 = getelementptr inbounds [100000 x i32], [100000 x i32]* %10, i64 0, i64 %91
  %93 = load i32, i32* %92, align 4
  %94 = icmp sgt i32 %93, 1
  br i1 %94, label %95, label %98

95:                                               ; preds = %89
  %96 = load i32, i32* %7, align 4
  %97 = add nsw i32 %96, 1
  store i32 %97, i32* %7, align 4
  br label %98

98:                                               ; preds = %95, %89
  br label %99

99:                                               ; preds = %98
  %100 = load i32, i32* %4, align 4
  %101 = add nsw i32 %100, 1
  store i32 %101, i32* %4, align 4
  br label %85

102:                                              ; preds = %85
  %103 = load i32, i32* %7, align 4
  %104 = load i32, i32* %6, align 4
  %105 = icmp eq i32 %103, %104
  br i1 %105, label %106, label %108

106:                                              ; preds = %102
  %107 = call i32 (i8*, ...) @printf(i8* getelementptr inbounds ([4 x i8], [4 x i8]* @.str.3, i64 0, i64 0))
  br label %108

108:                                              ; preds = %106, %102
  store i32 0, i32* %4, align 4
  br label %109

109:                                              ; preds = %117, %108
  %110 = load i32, i32* %4, align 4
  %111 = load i32, i32* %6, align 4
  %112 = icmp slt i32 %110, %111
  br i1 %112, label %113, label %120

113:                                              ; preds = %109
  %114 = load i32, i32* %4, align 4
  %115 = sext i32 %114 to i64
  %116 = getelementptr inbounds [100000 x i32], [100000 x i32]* %10, i64 0, i64 %115
  store i32 0, i32* %116, align 4
  br label %117

117:                                              ; preds = %113
  %118 = load i32, i32* %4, align 4
  %119 = add nsw i32 %118, 1
  store i32 %119, i32* %4, align 4
  br label %109

120:                                              ; preds = %109
  br label %121

121:                                              ; preds = %120
  %122 = load i32, i32* %3, align 4
  %123 = add nsw i32 %122, 1
  store i32 %123, i32* %3, align 4
  br label %14

124:                                              ; preds = %14
  ret i32 0
}

; Function Attrs: argmemonly nounwind willreturn
declare void @llvm.memset.p0i8.i64(i8* nocapture writeonly, i8, i64, i1 immarg) #1

declare dso_local i32 @__isoc99_scanf(i8*, ...) #2

; Function Attrs: nounwind readonly
declare dso_local i64 @strlen(i8*) #3

declare dso_local i32 @printf(i8*, ...) #2


!llvm.module.flags = !{!0}
!llvm.ident = !{!1}

!0 = !{i32 1, !"wchar_size", i32 4}
!1 = !{!"clang version 10.0.0-4ubuntu1 "}
